target datalayout = "e-m:e-p270:32:32-p271:32:32-p272:64:64-i64:64-i128:128-f80:128-n8:16:32:64-S128"
target triple = "x86_64-unknown-linux-gnu"

%"class.google::protobuf::internal::InternalMetadata" = type { i64 }
%"class.google::protobuf::internal::HasBits" = type { [1 x i32] }
%"class.google::protobuf::internal::CachedSize" = type { i32 }
%"class.pb::CppFeatures" = type <{ %"class.google::protobuf::Message", %union.anon, [4 x i8] }>
%"class.google::protobuf::Message" = type { %"class.google::protobuf::MessageLite" }
%"class.google::protobuf::MessageLite" = type { ptr, %"class.google::protobuf::internal::InternalMetadata" }
%union.anon = type { %"struct.pb::CppFeatures::Impl_" }
%"struct.pb::CppFeatures::Impl_" = type <{ %"class.google::protobuf::internal::HasBits", %"class.google::protobuf::internal::CachedSize", i8, [3 x i8] }>

; Function Attrs: mustprogress nounwind uwtable
define linkonce_odr void @_ZSt4swapIbENSt9enable_ifIXsr6__and_ISt6__not_ISt15__is_tuple_likeIT_EESt21is_move_constructibleIS3_ESt18is_move_assignableIS3_EEE5valueEvE4typeERS3_SC_(ptr noundef nonnull align 1 dereferenceable(1) %__a, ptr noundef nonnull align 1 dereferenceable(1) %__b) #5 comdat {
entry:
  %__a.addr = alloca ptr, align 8
  %__b.addr = alloca ptr, align 8
  %__tmp = alloca i8, align 1
  store ptr %__a, ptr %__a.addr, align 8
  store ptr %__b, ptr %__b.addr, align 8
  %0 = load ptr, ptr %__a.addr, align 8
  %1 = load i8, ptr %0, align 1
  %tobool = trunc i8 %1 to i1
  %frombool = zext i1 %tobool to i8
  store i8 %frombool, ptr %__tmp, align 1
  %2 = load ptr, ptr %__b.addr, align 8
  %3 = load i8, ptr %2, align 1
  %tobool1 = trunc i8 %3 to i1
  %4 = load ptr, ptr %__a.addr, align 8
  %frombool2 = zext i1 %tobool1 to i8
  store i8 %frombool2, ptr %4, align 1
  %5 = load i8, ptr %__tmp, align 1
  %tobool3 = trunc i8 %5 to i1
  %6 = load ptr, ptr %__b.addr, align 8
  %frombool4 = zext i1 %tobool3 to i8
  store i8 %frombool4, ptr %6, align 1
  ret void
}

; Function Attrs: mustprogress nounwind uwtable
define linkonce_odr void @_ZSt4swapIjENSt9enable_ifIXsr6__and_ISt6__not_ISt15__is_tuple_likeIT_EESt21is_move_constructibleIS3_ESt18is_move_assignableIS3_EEE5valueEvE4typeERS3_SC_(ptr noundef nonnull align 4 dereferenceable(4) %__a, ptr noundef nonnull align 4 dereferenceable(4) %__b) #5 comdat {
entry:
  %__a.addr = alloca ptr, align 8
  %__b.addr = alloca ptr, align 8
  %__tmp = alloca i32, align 4
  store ptr %__a, ptr %__a.addr, align 8
  store ptr %__b, ptr %__b.addr, align 8
  %0 = load ptr, ptr %__a.addr, align 8
  %1 = load i32, ptr %0, align 4
  store i32 %1, ptr %__tmp, align 4
  %2 = load ptr, ptr %__b.addr, align 8
  %3 = load i32, ptr %2, align 4
  %4 = load ptr, ptr %__a.addr, align 8
  store i32 %3, ptr %4, align 4
  %5 = load i32, ptr %__tmp, align 4
  %6 = load ptr, ptr %__b.addr, align 8
  store i32 %5, ptr %6, align 4
  ret void
}

; Function Attrs: mustprogress nounwind uwtable
define linkonce_odr void @_ZSt4swapIlENSt9enable_ifIXsr6__and_ISt6__not_ISt15__is_tuple_likeIT_EESt21is_move_constructibleIS3_ESt18is_move_assignableIS3_EEE5valueEvE4typeERS3_SC_(ptr noundef nonnull align 8 dereferenceable(8) %__a, ptr noundef nonnull align 8 dereferenceable(8) %__b) #5 comdat {
entry:
  %__a.addr = alloca ptr, align 8
  %__b.addr = alloca ptr, align 8
  %__tmp = alloca i64, align 8
  store ptr %__a, ptr %__a.addr, align 8
  store ptr %__b, ptr %__b.addr, align 8
  %0 = load ptr, ptr %__a.addr, align 8
  %1 = load i64, ptr %0, align 8
  store i64 %1, ptr %__tmp, align 8
  %2 = load ptr, ptr %__b.addr, align 8
  %3 = load i64, ptr %2, align 8
  %4 = load ptr, ptr %__a.addr, align 8
  store i64 %3, ptr %4, align 8
  %5 = load i64, ptr %__tmp, align 8
  %6 = load ptr, ptr %__b.addr, align 8
  store i64 %5, ptr %6, align 8
  ret void
}

; Function Attrs: mustprogress uwtable
define void @_ZN2pb11CppFeatures12InternalSwapEPS0_(ptr noundef nonnull align 8 dereferenceable(32) %this, ptr noalias noundef %other) #4 align 2 {
entry:
  %this.addr.i11 = alloca ptr, align 8
  %other.addr.i = alloca ptr, align 8
  %this.addr.i6 = alloca ptr, align 8
  %index.addr.i7 = alloca i32, align 4
  %this.addr.i = alloca ptr, align 8
  %index.addr.i = alloca i32, align 4
  %this.addr = alloca ptr, align 8
  %other.addr = alloca ptr, align 8
  store ptr %this, ptr %this.addr, align 8
  store ptr %other, ptr %other.addr, align 8
  %this1 = load ptr, ptr %this.addr, align 8
  %_internal_metadata_ = getelementptr inbounds %"class.google::protobuf::MessageLite", ptr %this1, i32 0, i32 1
  %0 = load ptr, ptr %other.addr, align 8
  %_internal_metadata_2 = getelementptr inbounds %"class.google::protobuf::MessageLite", ptr %0, i32 0, i32 1
  call void @llvm.experimental.noalias.scope.decl(metadata !6)
  store ptr %_internal_metadata_, ptr %this.addr.i11, align 8, !noalias !6
  store ptr %_internal_metadata_2, ptr %other.addr.i, align 8, !noalias !6
  %this1.i12 = load ptr, ptr %this.addr.i11, align 8, !noalias !6
  %1 = load ptr, ptr %other.addr.i, align 8, !noalias !6
  call void @_ZSt4swapIlENSt9enable_ifIXsr6__and_ISt6__not_ISt15__is_tuple_likeIT_EESt21is_move_constructibleIS3_ESt18is_move_assignableIS3_EEE5valueEvE4typeERS3_SC_(ptr noundef nonnull align 8 dereferenceable(8) %this1.i12, ptr noundef nonnull align 8 dereferenceable(8) %1) #3
  %2 = getelementptr inbounds %"class.pb::CppFeatures", ptr %this1, i32 0, i32 1
  %_has_bits_ = getelementptr inbounds %"struct.pb::CppFeatures::Impl_", ptr %2, i32 0, i32 0
  store ptr %_has_bits_, ptr %this.addr.i6, align 8
  store i32 0, ptr %index.addr.i7, align 4
  %this1.i8 = load ptr, ptr %this.addr.i6, align 8
  %3 = load i32, ptr %index.addr.i7, align 4
  %idxprom.i9 = sext i32 %3 to i64
  %arrayidx.i10 = getelementptr inbounds [1 x i32], ptr %this1.i8, i64 0, i64 %idxprom.i9
  %4 = load ptr, ptr %other.addr, align 8
  %5 = getelementptr inbounds %"class.pb::CppFeatures", ptr %4, i32 0, i32 1
  %_has_bits_3 = getelementptr inbounds %"struct.pb::CppFeatures::Impl_", ptr %5, i32 0, i32 0
  store ptr %_has_bits_3, ptr %this.addr.i, align 8
  store i32 0, ptr %index.addr.i, align 4
  %this1.i = load ptr, ptr %this.addr.i, align 8
  %6 = load i32, ptr %index.addr.i, align 4
  %idxprom.i = sext i32 %6 to i64
  %arrayidx.i = getelementptr inbounds [1 x i32], ptr %this1.i, i64 0, i64 %idxprom.i
  call void @_ZSt4swapIjENSt9enable_ifIXsr6__and_ISt6__not_ISt15__is_tuple_likeIT_EESt21is_move_constructibleIS3_ESt18is_move_assignableIS3_EEE5valueEvE4typeERS3_SC_(ptr noundef nonnull align 4 dereferenceable(4) %arrayidx.i10, ptr noundef nonnull align 4 dereferenceable(4) %arrayidx.i) #3
  %7 = getelementptr inbounds %"class.pb::CppFeatures", ptr %this1, i32 0, i32 1
  %legacy_closed_enum_ = getelementptr inbounds %"struct.pb::CppFeatures::Impl_", ptr %7, i32 0, i32 2
  %8 = load ptr, ptr %other.addr, align 8
  %9 = getelementptr inbounds %"class.pb::CppFeatures", ptr %8, i32 0, i32 1
  %legacy_closed_enum_5 = getelementptr inbounds %"struct.pb::CppFeatures::Impl_", ptr %9, i32 0, i32 2
  call void @_ZSt4swapIbENSt9enable_ifIXsr6__and_ISt6__not_ISt15__is_tuple_likeIT_EESt21is_move_constructibleIS3_ESt18is_move_assignableIS3_EEE5valueEvE4typeERS3_SC_(ptr noundef nonnull align 1 dereferenceable(1) %legacy_closed_enum_, ptr noundef nonnull align 1 dereferenceable(1) %legacy_closed_enum_5) #3
  ret void
}