; Function Attrs: mustprogress nofree norecurse nosync nounwind willreturn memory(argmem: readwrite) uwtable
define void @_ZN2pb11CppFeatures12InternalSwapEPS0_(ptr nocapture noundef nonnull align 8 dereferenceable(32) %this, ptr noalias nocapture noundef %other) local_unnamed_addr #9 align 2 {
entry:
  %_internal_metadata_ = getelementptr inbounds i8, ptr %this, i64 8
  %_internal_metadata_2 = getelementptr inbounds i8, ptr %other, i64 8
  %0 = load i64, ptr %_internal_metadata_, align 8
  %1 = load i64, ptr %_internal_metadata_2, align 8
  store i64 %1, ptr %_internal_metadata_, align 8
  store i64 %0, ptr %_internal_metadata_2, align 8
  %2 = getelementptr inbounds i8, ptr %this, i64 16
  %3 = getelementptr inbounds i8, ptr %other, i64 16
  %4 = load i32, ptr %2, align 8
  %5 = load i32, ptr %3, align 4
  store i32 %5, ptr %2, align 8
  store i32 %4, ptr %3, align 4
  %legacy_closed_enum_ = getelementptr inbounds i8, ptr %this, i64 24
  %legacy_closed_enum_5 = getelementptr inbounds i8, ptr %other, i64 24
  %6 = load i8, ptr %legacy_closed_enum_, align 8
  %7 = and i8 %6, 1
  %8 = load i8, ptr %legacy_closed_enum_5, align 1
  %9 = and i8 %8, 1
  store i8 %9, ptr %legacy_closed_enum_, align 8
  store i8 %7, ptr %legacy_closed_enum_5, align 1
  ret void
}